target datalayout = "e-m:e-p270:32:32-p271:32:32-p272:64:64-i64:64-i128:128-f80:128-n8:16:32:64-S128"
target triple = "x86_64-pc-linux-gnu"

%"class.std::vector" = type { %"struct.std::_Vector_base" }
%"struct.std::_Vector_base" = type { %"struct.std::_Vector_base<float, std::allocator<float>>::_Vector_impl" }
%"struct.std::_Vector_base<float, std::allocator<float>>::_Vector_impl" = type { %"struct.std::_Vector_base<float, std::allocator<float>>::_Vector_impl_data" }
%"struct.std::_Vector_base<float, std::allocator<float>>::_Vector_impl_data" = type { ptr, ptr, ptr }
%"class.cv::detail::tracking::online_boosting::BaseClassifier" = type <{ ptr, ptr, i8, [3 x i8], i32, i32, i32, %"class.std::vector", %"class.std::vector", i32, [4 x i8] }>

; Function Attrs: mustprogress nounwind uwtable
define linkonce_odr hidden void @_ZNSt15__new_allocatorIfE10deallocateEPfm(ptr noundef nonnull align 1 dereferenceable(1) %0, ptr noundef %1, i64 noundef %2) #5 comdat align 2 {
  %4 = alloca ptr, align 8
  %5 = alloca ptr, align 8
  %6 = alloca i64, align 8
  store ptr %0, ptr %4, align 8, !tbaa !194
  store ptr %1, ptr %5, align 8, !tbaa !60
  store i64 %2, ptr %6, align 8, !tbaa !58
  %7 = load ptr, ptr %5, align 8, !tbaa !60
  call void @_ZdlPv(ptr noundef %7) #19
  ret void
}

; Function Attrs: mustprogress nounwind uwtable
define linkonce_odr hidden void @_ZNSt15__new_allocatorIfEC2Ev(ptr noundef nonnull align 1 dereferenceable(1) %0) unnamed_addr #5 comdat align 2 {
  %2 = alloca ptr, align 8
  store ptr %0, ptr %2, align 8, !tbaa !194
  ret void
}

; Function Attrs: mustprogress uwtable
define linkonce_odr hidden void @_ZNSt16allocator_traitsISaIfEE10deallocateERS0_Pfm(ptr noundef nonnull align 1 dereferenceable(1) %0, ptr noundef %1, i64 noundef %2) #4 comdat align 2 {
  %4 = alloca ptr, align 8
  %5 = alloca ptr, align 8
  %6 = alloca i64, align 8
  store ptr %0, ptr %4, align 8, !tbaa !192
  store ptr %1, ptr %5, align 8, !tbaa !60
  store i64 %2, ptr %6, align 8, !tbaa !58
  %7 = load ptr, ptr %4, align 8, !tbaa !192
  %8 = load ptr, ptr %5, align 8, !tbaa !60
  %9 = load i64, ptr %6, align 8, !tbaa !58
  call void @_ZNSt15__new_allocatorIfE10deallocateEPfm(ptr noundef nonnull align 1 dereferenceable(1) %7, ptr noundef %8, i64 noundef %9)
  ret void
}

; Function Attrs: mustprogress nounwind uwtable
define linkonce_odr hidden void @_ZNSt12_Destroy_auxILb1EE9__destroyIPfEEvT_S3_(ptr noundef %0, ptr noundef %1) #5 comdat align 2 {
  %3 = alloca ptr, align 8
  %4 = alloca ptr, align 8
  store ptr %0, ptr %3, align 8, !tbaa !60
  store ptr %1, ptr %4, align 8, !tbaa !60
  ret void
}

; Function Attrs: mustprogress nounwind uwtable
define linkonce_odr hidden void @_ZNSt12_Vector_baseIfSaIfEE17_Vector_impl_dataC2Ev(ptr noundef nonnull align 8 dereferenceable(24) %0) unnamed_addr #5 comdat align 2 {
  %2 = alloca ptr, align 8
  store ptr %0, ptr %2, align 8, !tbaa !239
  %3 = load ptr, ptr %2, align 8
  %4 = getelementptr inbounds nuw %"struct.std::_Vector_base<float, std::allocator<float>>::_Vector_impl_data", ptr %3, i32 0, i32 0
  store ptr null, ptr %4, align 8, !tbaa !61
  %5 = getelementptr inbounds nuw %"struct.std::_Vector_base<float, std::allocator<float>>::_Vector_impl_data", ptr %3, i32 0, i32 1
  store ptr null, ptr %5, align 8, !tbaa !62
  %6 = getelementptr inbounds nuw %"struct.std::_Vector_base<float, std::allocator<float>>::_Vector_impl_data", ptr %3, i32 0, i32 2
  store ptr null, ptr %6, align 8, !tbaa !235
  ret void
}

; Function Attrs: mustprogress nounwind uwtable
define linkonce_odr hidden void @_ZNSaIfEC2Ev(ptr noundef nonnull align 1 dereferenceable(1) %0) unnamed_addr #5 comdat align 2 {
  %2 = alloca ptr, align 8
  store ptr %0, ptr %2, align 8, !tbaa !192
  %3 = load ptr, ptr %2, align 8
  call void @_ZNSt15__new_allocatorIfEC2Ev(ptr noundef nonnull align 1 dereferenceable(1) %3) #3
  ret void
}

; Function Attrs: mustprogress nounwind uwtable
define linkonce_odr hidden void @_ZNSt15__new_allocatorIfED2Ev(ptr noundef nonnull align 1 dereferenceable(1) %0) unnamed_addr #5 comdat align 2 {
  %2 = alloca ptr, align 8
  store ptr %0, ptr %2, align 8, !tbaa !194
  ret void
}

; Function Attrs: mustprogress uwtable
define linkonce_odr hidden void @_ZNSt12_Vector_baseIfSaIfEE13_M_deallocateEPfm(ptr noundef nonnull align 8 dereferenceable(24) %0, ptr noundef %1, i64 noundef %2) #4 comdat align 2 {
  %4 = alloca ptr, align 8
  %5 = alloca ptr, align 8
  %6 = alloca i64, align 8
  store ptr %0, ptr %4, align 8, !tbaa !188
  store ptr %1, ptr %5, align 8, !tbaa !60
  store i64 %2, ptr %6, align 8, !tbaa !58
  %7 = load ptr, ptr %4, align 8
  %8 = load ptr, ptr %5, align 8, !tbaa !60
  %9 = icmp ne ptr %8, null
  br i1 %9, label %10, label %14

10:                                               ; preds = %3
  %11 = getelementptr inbounds nuw %"struct.std::_Vector_base", ptr %7, i32 0, i32 0
  %12 = load ptr, ptr %5, align 8, !tbaa !60
  %13 = load i64, ptr %6, align 8, !tbaa !58
  call void @_ZNSt16allocator_traitsISaIfEE10deallocateERS0_Pfm(ptr noundef nonnull align 1 dereferenceable(1) %11, ptr noundef %12, i64 noundef %13)
  br label %14

14:                                               ; preds = %10, %3
  ret void
}

; Function Attrs: inlinehint mustprogress uwtable
define linkonce_odr void @_ZSt8_DestroyIPfEvT_S1_(ptr noundef %0, ptr noundef %1) #12 comdat {
  %3 = alloca ptr, align 8
  %4 = alloca ptr, align 8
  store ptr %0, ptr %3, align 8, !tbaa !60
  store ptr %1, ptr %4, align 8, !tbaa !60
  %5 = load ptr, ptr %3, align 8, !tbaa !60
  %6 = load ptr, ptr %4, align 8, !tbaa !60
  call void @_ZNSt12_Destroy_auxILb1EE9__destroyIPfEEvT_S3_(ptr noundef %5, ptr noundef %6)
  ret void
}

; Function Attrs: mustprogress nounwind uwtable
define linkonce_odr hidden void @_ZNSt12_Vector_baseIfSaIfEE12_Vector_implC2Ev(ptr noundef nonnull align 8 dereferenceable(24) %0) unnamed_addr #5 comdat align 2 {
  %2 = alloca ptr, align 8
  store ptr %0, ptr %2, align 8, !tbaa !190
  %3 = load ptr, ptr %2, align 8
  call void @_ZNSaIfEC2Ev(ptr noundef nonnull align 1 dereferenceable(1) %3) #3
  call void @_ZNSt12_Vector_baseIfSaIfEE17_Vector_impl_dataC2Ev(ptr noundef nonnull align 8 dereferenceable(24) %3) #3
  ret void
}

; Function Attrs: noinline noreturn nounwind uwtable
define linkonce_odr hidden void @__clang_call_terminate(ptr noundef %0) #14 comdat {
  %2 = call ptr @__cxa_begin_catch(ptr %0) #3
  call void @_ZSt9terminatev() #20
  unreachable
}

; Function Attrs: mustprogress nounwind uwtable
define linkonce_odr hidden void @_ZNSt12_Vector_baseIfSaIfEED2Ev(ptr noundef nonnull align 8 dereferenceable(24) %0) unnamed_addr #5 comdat align 2 personality ptr @__gxx_personality_v0 {
  %2 = alloca ptr, align 8
  store ptr %0, ptr %2, align 8, !tbaa !188
  %3 = load ptr, ptr %2, align 8
  %4 = getelementptr inbounds nuw %"struct.std::_Vector_base", ptr %3, i32 0, i32 0
  %5 = getelementptr inbounds nuw %"struct.std::_Vector_base<float, std::allocator<float>>::_Vector_impl_data", ptr %4, i32 0, i32 0
  %6 = load ptr, ptr %5, align 8, !tbaa !61
  %7 = getelementptr inbounds nuw %"struct.std::_Vector_base", ptr %3, i32 0, i32 0
  %8 = getelementptr inbounds nuw %"struct.std::_Vector_base<float, std::allocator<float>>::_Vector_impl_data", ptr %7, i32 0, i32 2
  %9 = load ptr, ptr %8, align 8, !tbaa !235
  %10 = getelementptr inbounds nuw %"struct.std::_Vector_base", ptr %3, i32 0, i32 0
  %11 = getelementptr inbounds nuw %"struct.std::_Vector_base<float, std::allocator<float>>::_Vector_impl_data", ptr %10, i32 0, i32 0
  %12 = load ptr, ptr %11, align 8, !tbaa !61
  %13 = ptrtoint ptr %9 to i64
  %14 = ptrtoint ptr %12 to i64
  %15 = sub i64 %13, %14
  %16 = sdiv exact i64 %15, 4
  invoke void @_ZNSt12_Vector_baseIfSaIfEE13_M_deallocateEPfm(ptr noundef nonnull align 8 dereferenceable(24) %3, ptr noundef %6, i64 noundef %16)
          to label %17 unwind label %19

17:                                               ; preds = %1
  %18 = getelementptr inbounds nuw %"struct.std::_Vector_base", ptr %3, i32 0, i32 0
  call void @_ZNSt15__new_allocatorIfED2Ev(ptr noundef nonnull align 8 dereferenceable(24) %18) #3
  ret void

19:                                               ; preds = %1
  %20 = landingpad { ptr, i32 }
          catch ptr null
  %21 = extractvalue { ptr, i32 } %20, 0
  call void @__clang_call_terminate(ptr %21) #20
  unreachable
}

; Function Attrs: inlinehint mustprogress uwtable
define linkonce_odr void @_ZSt8_DestroyIPffEvT_S1_RSaIT0_E(ptr noundef %0, ptr noundef %1, ptr noundef nonnull align 1 dereferenceable(1) %2) #12 comdat {
  %4 = alloca ptr, align 8
  %5 = alloca ptr, align 8
  %6 = alloca ptr, align 8
  store ptr %0, ptr %4, align 8, !tbaa !60
  store ptr %1, ptr %5, align 8, !tbaa !60
  store ptr %2, ptr %6, align 8, !tbaa !192
  %7 = load ptr, ptr %4, align 8, !tbaa !60
  %8 = load ptr, ptr %5, align 8, !tbaa !60
  call void @_ZSt8_DestroyIPfEvT_S1_(ptr noundef %7, ptr noundef %8)
  ret void
}

; Function Attrs: mustprogress nounwind uwtable
define linkonce_odr hidden noundef nonnull align 1 dereferenceable(1) ptr @_ZNSt12_Vector_baseIfSaIfEE19_M_get_Tp_allocatorEv(ptr noundef nonnull align 8 dereferenceable(24) %0) #5 comdat align 2 {
  %2 = alloca ptr, align 8
  store ptr %0, ptr %2, align 8, !tbaa !188
  %3 = load ptr, ptr %2, align 8
  %4 = getelementptr inbounds nuw %"struct.std::_Vector_base", ptr %3, i32 0, i32 0
  ret ptr %4
}

; Function Attrs: mustprogress nounwind uwtable
define linkonce_odr hidden void @_ZNSt12_Vector_baseIfSaIfEEC2Ev(ptr noundef nonnull align 8 dereferenceable(24) %0) unnamed_addr #5 comdat align 2 {
  %2 = alloca ptr, align 8
  store ptr %0, ptr %2, align 8, !tbaa !188
  %3 = load ptr, ptr %2, align 8
  %4 = getelementptr inbounds nuw %"struct.std::_Vector_base", ptr %3, i32 0, i32 0
  call void @_ZNSt12_Vector_baseIfSaIfEE12_Vector_implC2Ev(ptr noundef nonnull align 8 dereferenceable(24) %4) #3
  ret void
}

; Function Attrs: mustprogress nounwind uwtable
define linkonce_odr hidden void @_ZNSt6vectorIfSaIfEED2Ev(ptr noundef nonnull align 8 dereferenceable(24) %0) unnamed_addr #5 comdat align 2 personality ptr @__gxx_personality_v0 {
  %2 = alloca ptr, align 8
  store ptr %0, ptr %2, align 8, !tbaa !46
  %3 = load ptr, ptr %2, align 8
  %4 = getelementptr inbounds nuw %"struct.std::_Vector_base", ptr %3, i32 0, i32 0
  %5 = getelementptr inbounds nuw %"struct.std::_Vector_base<float, std::allocator<float>>::_Vector_impl_data", ptr %4, i32 0, i32 0
  %6 = load ptr, ptr %5, align 8, !tbaa !61
  %7 = getelementptr inbounds nuw %"struct.std::_Vector_base", ptr %3, i32 0, i32 0
  %8 = getelementptr inbounds nuw %"struct.std::_Vector_base<float, std::allocator<float>>::_Vector_impl_data", ptr %7, i32 0, i32 1
  %9 = load ptr, ptr %8, align 8, !tbaa !62
  %10 = call noundef nonnull align 1 dereferenceable(1) ptr @_ZNSt12_Vector_baseIfSaIfEE19_M_get_Tp_allocatorEv(ptr noundef nonnull align 8 dereferenceable(24) %3) #3
  invoke void @_ZSt8_DestroyIPffEvT_S1_RSaIT0_E(ptr noundef %6, ptr noundef %9, ptr noundef nonnull align 1 dereferenceable(1) %10)
          to label %11 unwind label %12

11:                                               ; preds = %1
  call void @_ZNSt12_Vector_baseIfSaIfEED2Ev(ptr noundef nonnull align 8 dereferenceable(24) %3) #3
  ret void

12:                                               ; preds = %1
  %13 = landingpad { ptr, i32 }
          catch ptr null
  %14 = extractvalue { ptr, i32 } %13, 0
  call void @__clang_call_terminate(ptr %14) #20
  unreachable
}

; Function Attrs: mustprogress nounwind uwtable
define linkonce_odr hidden noundef nonnull align 4 dereferenceable(4) ptr @_ZNSt6vectorIfSaIfEEixEm(ptr noundef nonnull align 8 dereferenceable(24) %0, i64 noundef %1) #5 comdat align 2 {
  %3 = alloca ptr, align 8
  %4 = alloca i64, align 8
  store ptr %0, ptr %3, align 8, !tbaa !46
  store i64 %1, ptr %4, align 8, !tbaa !58
  %5 = load ptr, ptr %3, align 8
  %6 = getelementptr inbounds nuw %"struct.std::_Vector_base", ptr %5, i32 0, i32 0
  %7 = getelementptr inbounds nuw %"struct.std::_Vector_base<float, std::allocator<float>>::_Vector_impl_data", ptr %6, i32 0, i32 0
  %8 = load ptr, ptr %7, align 8, !tbaa !61
  %9 = load i64, ptr %4, align 8, !tbaa !58
  %10 = getelementptr inbounds nuw float, ptr %8, i64 %9
  ret ptr %10
}

; Function Attrs: mustprogress uwtable
define linkonce_odr hidden void @_ZNSt6vectorIfSaIfEE6assignEmRKf(ptr noundef nonnull align 8 dereferenceable(24) %0, i64 noundef %1, ptr noundef nonnull align 4 dereferenceable(4) %2) #4 comdat align 2 {
  %4 = alloca ptr, align 8
  %5 = alloca i64, align 8
  %6 = alloca ptr, align 8
  store ptr %0, ptr %4, align 8, !tbaa !46
  store i64 %1, ptr %5, align 8, !tbaa !58
  store ptr %2, ptr %6, align 8, !tbaa !60
  %7 = load ptr, ptr %4, align 8
  %8 = load i64, ptr %5, align 8, !tbaa !58
  %9 = load ptr, ptr %6, align 8, !tbaa !60
  call void @_ZNSt6vectorIfSaIfEE14_M_fill_assignEmRKf(ptr noundef nonnull align 8 dereferenceable(24) %7, i64 noundef %8, ptr noundef nonnull align 4 dereferenceable(4) %9)
  ret void
}

; Function Attrs: mustprogress nounwind uwtable
define linkonce_odr hidden void @_ZNSt6vectorIfSaIfEEC2Ev(ptr noundef nonnull align 8 dereferenceable(24) %0) unnamed_addr #5 comdat align 2 {
  %2 = alloca ptr, align 8
  store ptr %0, ptr %2, align 8, !tbaa !46
  %3 = load ptr, ptr %2, align 8
  call void @_ZNSt12_Vector_baseIfSaIfEEC2Ev(ptr noundef nonnull align 8 dereferenceable(24) %3) #3
  ret void
}

; Function Attrs: mustprogress uwtable
define hidden void @_ZN2cv6detail8tracking15online_boosting14BaseClassifierC2Eii(ptr noundef nonnull align 8 dereferenceable(84) %0, i32 noundef %1, i32 noundef %2) unnamed_addr #4 align 2 personality ptr @__gxx_personality_v0 {
  %4 = alloca ptr, align 8
  %5 = alloca i32, align 4
  %6 = alloca i32, align 4
  %7 = alloca ptr, align 8
  %8 = alloca i32, align 4
  %9 = alloca float, align 4
  %10 = alloca float, align 4
  %11 = alloca i32, align 4
  store ptr %0, ptr %4, align 8, !tbaa !66
  store i32 %1, ptr %5, align 4, !tbaa !8
  store i32 %2, ptr %6, align 4, !tbaa !8
  %12 = load ptr, ptr %4, align 8
  store ptr getelementptr inbounds inrange(-16, 16) ({ [4 x ptr] }, ptr @_ZTVN2cv6detail8tracking15online_boosting14BaseClassifierE, i32 0, i32 0, i32 2), ptr %12, align 8, !tbaa !14
  %13 = getelementptr inbounds nuw %"class.cv::detail::tracking::online_boosting::BaseClassifier", ptr %12, i32 0, i32 7
  call void @_ZNSt6vectorIfSaIfEEC2Ev(ptr noundef nonnull align 8 dereferenceable(24) %13) #3
  %14 = getelementptr inbounds nuw %"class.cv::detail::tracking::online_boosting::BaseClassifier", ptr %12, i32 0, i32 8
  call void @_ZNSt6vectorIfSaIfEEC2Ev(ptr noundef nonnull align 8 dereferenceable(24) %14) #3
  %15 = load i32, ptr %5, align 4, !tbaa !8
  %16 = getelementptr inbounds nuw %"class.cv::detail::tracking::online_boosting::BaseClassifier", ptr %12, i32 0, i32 4
  store i32 %15, ptr %16, align 4, !tbaa !118
  %17 = load i32, ptr %6, align 4, !tbaa !8
  %18 = getelementptr inbounds nuw %"class.cv::detail::tracking::online_boosting::BaseClassifier", ptr %12, i32 0, i32 9
  store i32 %17, ptr %18, align 8, !tbaa !119
  %19 = load i32, ptr %5, align 4, !tbaa !8
  %20 = load i32, ptr %6, align 4, !tbaa !8
  %21 = add nsw i32 %19, %20
  %22 = sext i32 %21 to i64
  %23 = call { i64, i1 } @llvm.umul.with.overflow.i64(i64 %22, i64 8)
  %24 = extractvalue { i64, i1 } %23, 1
  %25 = extractvalue { i64, i1 } %23, 0
  %26 = select i1 %24, i64 -1, i64 %25
  %27 = invoke noalias noundef nonnull ptr @_Znam(i64 noundef %26) #18
          to label %28 unwind label %54

28:                                               ; preds = %3
  %29 = getelementptr inbounds nuw %"class.cv::detail::tracking::online_boosting::BaseClassifier", ptr %12, i32 0, i32 1
  store ptr %27, ptr %29, align 8, !tbaa !70
  %30 = load i32, ptr %5, align 4, !tbaa !8
  %31 = getelementptr inbounds nuw %"class.cv::detail::tracking::online_boosting::BaseClassifier", ptr %12, i32 0, i32 6
  store i32 %30, ptr %31, align 4, !tbaa !132
  invoke void @_ZN2cv6detail8tracking15online_boosting14BaseClassifier24generateRandomClassifierEv(ptr noundef nonnull align 8 dereferenceable(84) %12)
          to label %32 unwind label %54

32:                                               ; preds = %28
  %33 = getelementptr inbounds nuw %"class.cv::detail::tracking::online_boosting::BaseClassifier", ptr %12, i32 0, i32 2
  store i8 0, ptr %33, align 8, !tbaa !140
  %34 = getelementptr inbounds nuw %"class.cv::detail::tracking::online_boosting::BaseClassifier", ptr %12, i32 0, i32 5
  store i32 0, ptr %34, align 8, !tbaa !124
  %35 = getelementptr inbounds nuw %"class.cv::detail::tracking::online_boosting::BaseClassifier", ptr %12, i32 0, i32 7
  %36 = load i32, ptr %5, align 4, !tbaa !8
  %37 = load i32, ptr %6, align 4, !tbaa !8
  %38 = add nsw i32 %36, %37
  %39 = sext i32 %38 to i64
  call void @llvm.lifetime.start.p0(i64 4, ptr %9) #3
  store float 0.000000e+00, ptr %9, align 4, !tbaa !38
  invoke void @_ZNSt6vectorIfSaIfEE6assignEmRKf(ptr noundef nonnull align 8 dereferenceable(24) %35, i64 noundef %39, ptr noundef nonnull align 4 dereferenceable(4) %9)
          to label %40 unwind label %58

40:                                               ; preds = %32
  call void @llvm.lifetime.end.p0(i64 4, ptr %9) #3
  %41 = getelementptr inbounds nuw %"class.cv::detail::tracking::online_boosting::BaseClassifier", ptr %12, i32 0, i32 8
  %42 = load i32, ptr %5, align 4, !tbaa !8
  %43 = load i32, ptr %6, align 4, !tbaa !8
  %44 = add nsw i32 %42, %43
  %45 = sext i32 %44 to i64
  call void @llvm.lifetime.start.p0(i64 4, ptr %10) #3
  store float 0.000000e+00, ptr %10, align 4, !tbaa !38
  invoke void @_ZNSt6vectorIfSaIfEE6assignEmRKf(ptr noundef nonnull align 8 dereferenceable(24) %41, i64 noundef %45, ptr noundef nonnull align 4 dereferenceable(4) %10)
          to label %46 unwind label %62

46:                                               ; preds = %40
  call void @llvm.lifetime.end.p0(i64 4, ptr %10) #3
  call void @llvm.lifetime.start.p0(i64 4, ptr %11) #3
  store i32 0, ptr %11, align 4, !tbaa !8
  br label %47

47:                                               ; preds = %75, %46
  %48 = load i32, ptr %11, align 4, !tbaa !8
  %49 = load i32, ptr %5, align 4, !tbaa !8
  %50 = load i32, ptr %6, align 4, !tbaa !8
  %51 = add nsw i32 %49, %50
  %52 = icmp slt i32 %48, %51
  br i1 %52, label %66, label %53

53:                                               ; preds = %47
  call void @llvm.lifetime.end.p0(i64 4, ptr %11) #3
  br label %78

54:                                               ; preds = %28, %3
  %55 = landingpad { ptr, i32 }
          cleanup
  %56 = extractvalue { ptr, i32 } %55, 0
  store ptr %56, ptr %7, align 8
  %57 = extractvalue { ptr, i32 } %55, 1
  store i32 %57, ptr %8, align 4
  br label %79

58:                                               ; preds = %32
  %59 = landingpad { ptr, i32 }
          cleanup
  %60 = extractvalue { ptr, i32 } %59, 0
  store ptr %60, ptr %7, align 8
  %61 = extractvalue { ptr, i32 } %59, 1
  store i32 %61, ptr %8, align 4
  call void @llvm.lifetime.end.p0(i64 4, ptr %9) #3
  br label %79

62:                                               ; preds = %40
  %63 = landingpad { ptr, i32 }
          cleanup
  %64 = extractvalue { ptr, i32 } %63, 0
  store ptr %64, ptr %7, align 8
  %65 = extractvalue { ptr, i32 } %63, 1
  store i32 %65, ptr %8, align 4
  call void @llvm.lifetime.end.p0(i64 4, ptr %10) #3
  br label %79

66:                                               ; preds = %47
  %67 = getelementptr inbounds nuw %"class.cv::detail::tracking::online_boosting::BaseClassifier", ptr %12, i32 0, i32 7
  %68 = load i32, ptr %11, align 4, !tbaa !8
  %69 = sext i32 %68 to i64
  %70 = call noundef nonnull align 4 dereferenceable(4) ptr @_ZNSt6vectorIfSaIfEEixEm(ptr noundef nonnull align 8 dereferenceable(24) %67, i64 noundef %69) #3
  store float 1.000000e+00, ptr %70, align 4, !tbaa !38
  %71 = getelementptr inbounds nuw %"class.cv::detail::tracking::online_boosting::BaseClassifier", ptr %12, i32 0, i32 8
  %72 = load i32, ptr %11, align 4, !tbaa !8
  %73 = sext i32 %72 to i64
  %74 = call noundef nonnull align 4 dereferenceable(4) ptr @_ZNSt6vectorIfSaIfEEixEm(ptr noundef nonnull align 8 dereferenceable(24) %71, i64 noundef %73) #3
  store float 1.000000e+00, ptr %74, align 4, !tbaa !38
  br label %75

75:                                               ; preds = %66
  %76 = load i32, ptr %11, align 4, !tbaa !8
  %77 = add nsw i32 %76, 1
  store i32 %77, ptr %11, align 4, !tbaa !8
  br label %47, !llvm.loop !141

78:                                               ; preds = %53
  ret void

79:                                               ; preds = %62, %58, %54
  call void @_ZNSt6vectorIfSaIfEED2Ev(ptr noundef nonnull align 8 dereferenceable(24) %14) #3
  call void @_ZNSt6vectorIfSaIfEED2Ev(ptr noundef nonnull align 8 dereferenceable(24) %13) #3
  br label %80

80:                                               ; preds = %79
  %81 = load ptr, ptr %7, align 8
  %82 = load i32, ptr %8, align 4
  %83 = insertvalue { ptr, i32 } poison, ptr %81, 0
  %84 = insertvalue { ptr, i32 } %83, i32 %82, 1
  resume { ptr, i32 } %84
}