; Function Attrs: mustprogress uwtable
define hidden void @_ZN2cv6detail8tracking15online_boosting14BaseClassifierC2Eii(ptr noundef nonnull align 8 dereferenceable(84) initializes((0, 8), (20, 24), (32, 84)) %0, i32 noundef %1, i32 noundef %2) unnamed_addr #3 align 2 personality ptr @__gxx_personality_v0 {
  %4 = alloca float, align 4
  %5 = alloca float, align 4
  store ptr getelementptr inbounds nuw inrange(-16, 16) (i8, ptr @_ZTVN2cv6detail8tracking15online_boosting14BaseClassifierE, i64 16), ptr %0, align 8, !tbaa !3
  %6 = getelementptr inbounds nuw i8, ptr %0, i64 32
  %7 = getelementptr inbounds nuw i8, ptr %0, i64 56
  %8 = getelementptr inbounds nuw i8, ptr %0, i64 20
  tail call void @llvm.memset.p0.i64(ptr noundef nonnull align 8 dereferenceable(48) %6, i8 0, i64 48, i1 false)
  store i32 %1, ptr %8, align 4, !tbaa !116
  %9 = getelementptr inbounds nuw i8, ptr %0, i64 80
  store i32 %2, ptr %9, align 8, !tbaa !117
  %10 = add nsw i32 %2, %1
  %11 = sext i32 %10 to i64
  %12 = icmp slt i32 %10, 0
  %13 = shl nsw i64 %11, 3
  %14 = select i1 %12, i64 -1, i64 %13
  %15 = invoke noalias noundef nonnull ptr @_Znam(i64 noundef %14) #25
          to label %16 unwind label %25

16:                                               ; preds = %3
  %17 = getelementptr inbounds nuw i8, ptr %0, i64 8
  store ptr %15, ptr %17, align 8, !tbaa !67
  %18 = getelementptr inbounds nuw i8, ptr %0, i64 28
  store i32 %1, ptr %18, align 4, !tbaa !121
  invoke void @_ZN2cv6detail8tracking15online_boosting14BaseClassifier24generateRandomClassifierEv(ptr noundef nonnull align 8 dereferenceable(84) %0)
          to label %19 unwind label %25

19:                                               ; preds = %16
  %20 = getelementptr inbounds nuw i8, ptr %0, i64 16
  store i8 0, ptr %20, align 8, !tbaa !144
  %21 = getelementptr inbounds nuw i8, ptr %0, i64 24
  store i32 0, ptr %21, align 8, !tbaa !80
  call void @llvm.lifetime.start.p0(i64 4, ptr nonnull %4) #24
  store float 0.000000e+00, ptr %4, align 4, !tbaa !34
  invoke void @_ZNSt6vectorIfSaIfEE14_M_fill_assignEmRKf(ptr noundef nonnull align 8 dereferenceable(24) %6, i64 noundef %11, ptr noundef nonnull align 4 dereferenceable(4) %4)
          to label %_ZNSt6vectorIfSaIfEE6assignEmRKf.exit unwind label %27

_ZNSt6vectorIfSaIfEE6assignEmRKf.exit:            ; preds = %19
  call void @llvm.lifetime.end.p0(i64 4, ptr nonnull %4) #24
  call void @llvm.lifetime.start.p0(i64 4, ptr nonnull %5) #24
  store float 0.000000e+00, ptr %5, align 4, !tbaa !34
  invoke void @_ZNSt6vectorIfSaIfEE14_M_fill_assignEmRKf(ptr noundef nonnull align 8 dereferenceable(24) %7, i64 noundef %11, ptr noundef nonnull align 4 dereferenceable(4) %5)
          to label %_ZNSt6vectorIfSaIfEE6assignEmRKf.exit20 unwind label %29

_ZNSt6vectorIfSaIfEE6assignEmRKf.exit20:          ; preds = %_ZNSt6vectorIfSaIfEE6assignEmRKf.exit
  call void @llvm.lifetime.end.p0(i64 4, ptr nonnull %5) #24
  %22 = icmp sgt i32 %10, 0
  br i1 %22, label %.lr.ph, label %._crit_edge

.lr.ph:                                           ; preds = %_ZNSt6vectorIfSaIfEE6assignEmRKf.exit20
  %23 = load ptr, ptr %6, align 8, !tbaa !38
  %24 = load ptr, ptr %7, align 8, !tbaa !38
  %wide.trip.count = zext nneg i32 %10 to i64
  br label %31

._crit_edge:                                      ; preds = %31, %_ZNSt6vectorIfSaIfEE6assignEmRKf.exit20
  ret void

25:                                               ; preds = %16, %3
  %26 = landingpad { ptr, i32 }
          cleanup
  br label %34

27:                                               ; preds = %19
  %28 = landingpad { ptr, i32 }
          cleanup
  call void @llvm.lifetime.end.p0(i64 4, ptr nonnull %4) #24
  br label %34

29:                                               ; preds = %_ZNSt6vectorIfSaIfEE6assignEmRKf.exit
  %30 = landingpad { ptr, i32 }
          cleanup
  call void @llvm.lifetime.end.p0(i64 4, ptr nonnull %5) #24
  br label %34

31:                                               ; preds = %.lr.ph, %31
  %indvars.iv = phi i64 [ 0, %.lr.ph ], [ %indvars.iv.next, %31 ]
  %32 = getelementptr inbounds nuw float, ptr %23, i64 %indvars.iv
  store float 1.000000e+00, ptr %32, align 4, !tbaa !34
  %33 = getelementptr inbounds nuw float, ptr %24, i64 %indvars.iv
  store float 1.000000e+00, ptr %33, align 4, !tbaa !34
  %indvars.iv.next = add nuw nsw i64 %indvars.iv, 1
  %exitcond.not = icmp eq i64 %indvars.iv.next, %wide.trip.count
  br i1 %exitcond.not, label %._crit_edge, label %31, !llvm.loop !145

34:                                               ; preds = %29, %27, %25
  %.pn = phi { ptr, i32 } [ %30, %29 ], [ %28, %27 ], [ %26, %25 ]
  %35 = load ptr, ptr %7, align 8, !tbaa !38
  %.not.i.i.i = icmp eq ptr %35, null
  br i1 %.not.i.i.i, label %_ZNSt6vectorIfSaIfEED2Ev.exit, label %36

36:                                               ; preds = %34
  call void @_ZdlPv(ptr noundef nonnull %35) #26
  br label %_ZNSt6vectorIfSaIfEED2Ev.exit

_ZNSt6vectorIfSaIfEED2Ev.exit:                    ; preds = %34, %36
  %37 = load ptr, ptr %6, align 8, !tbaa !38
  %.not.i.i.i21 = icmp eq ptr %37, null
  br i1 %.not.i.i.i21, label %_ZNSt6vectorIfSaIfEED2Ev.exit22, label %38

38:                                               ; preds = %_ZNSt6vectorIfSaIfEED2Ev.exit
  call void @_ZdlPv(ptr noundef nonnull %37) #26
  br label %_ZNSt6vectorIfSaIfEED2Ev.exit22

_ZNSt6vectorIfSaIfEED2Ev.exit22:                  ; preds = %_ZNSt6vectorIfSaIfEED2Ev.exit, %38
  resume { ptr, i32 } %.pn
}